target datalayout = "e-m:e-p270:32:32-p271:32:32-p272:64:64-i64:64-i128:128-f80:128-n8:16:32:64-S128"
target triple = "x86_64-pc-linux-gnu"

%struct.xlist = type { i32, i32, ptr, ptr, ptr, ptr, %union.pthread_rwlock_t, ptr, ptr, [0 x %struct.listNode] }
%union.pthread_rwlock_t = type { %struct.__pthread_rwlock_arch_t }
%struct.__pthread_rwlock_arch_t = type { i32, i32, i32, i32, i32, i32, i32, i32, i8, [7 x i8], i64, i32 }
%struct.listNode = type { ptr, ptr }

@.str = private unnamed_addr constant [7 x i8] c"list.c\00", align 1
@__func__.list_create = private unnamed_addr constant [12 x i8] c"list_create\00", align 1
@.str.1 = private unnamed_addr constant [30 x i8] c"%s: pthread_rwlock_init(): %m\00", align 1

; Function Attrs: nounwind uwtable
define dso_local ptr @list_create(ptr noundef %0) #0 {
  %2 = alloca ptr, align 8
  %3 = alloca ptr, align 8
  %4 = alloca i32, align 4
  %5 = alloca i32, align 4
  store ptr %0, ptr %2, align 8
  call void @llvm.lifetime.start.p0(i64 8, ptr %3) #6
  %6 = call ptr @slurm_xcalloc(i64 noundef 1, i64 noundef 4064, i1 noundef zeroext true, i1 noundef zeroext false, ptr noundef @.str, i32 noundef 158, ptr noundef @__func__.list_create)
  store ptr %6, ptr %3, align 8
  %7 = load ptr, ptr %3, align 8
  %8 = getelementptr inbounds nuw %struct.xlist, ptr %7, i32 0, i32 0
  store i32 -559038737, ptr %8, align 8
  %9 = load ptr, ptr %3, align 8
  %10 = getelementptr inbounds nuw %struct.xlist, ptr %9, i32 0, i32 2
  store ptr null, ptr %10, align 8
  %11 = load ptr, ptr %3, align 8
  %12 = getelementptr inbounds nuw %struct.xlist, ptr %11, i32 0, i32 2
  %13 = load ptr, ptr %3, align 8
  %14 = getelementptr inbounds nuw %struct.xlist, ptr %13, i32 0, i32 3
  store ptr %12, ptr %14, align 8
  %15 = load ptr, ptr %3, align 8
  %16 = getelementptr inbounds nuw %struct.xlist, ptr %15, i32 0, i32 4
  store ptr null, ptr %16, align 8
  %17 = load ptr, ptr %2, align 8
  %18 = load ptr, ptr %3, align 8
  %19 = getelementptr inbounds nuw %struct.xlist, ptr %18, i32 0, i32 5
  store ptr %17, ptr %19, align 8
  %20 = load ptr, ptr %3, align 8
  %21 = getelementptr inbounds nuw %struct.xlist, ptr %20, i32 0, i32 1
  store i32 0, ptr %21, align 4
  br label %22

22:                                               ; preds = %1
  call void @llvm.lifetime.start.p0(i64 4, ptr %4) #6
  %23 = load ptr, ptr %3, align 8
  %24 = getelementptr inbounds nuw %struct.xlist, ptr %23, i32 0, i32 6
  %25 = call i32 @pthread_rwlock_init(ptr noundef %24, ptr noundef null) #6
  store i32 %25, ptr %4, align 4
  %26 = load i32, ptr %4, align 4
  %27 = icmp ne i32 %26, 0
  br i1 %27, label %28, label %31

28:                                               ; preds = %22
  %29 = load i32, ptr %4, align 4
  %30 = call ptr @__errno_location() #7
  store i32 %29, ptr %30, align 4
  call void (ptr, ...) @fatal_abort(ptr noundef @.str.1, ptr noundef @__func__.list_create) #8
  unreachable

31:                                               ; preds = %22
  call void @llvm.lifetime.end.p0(i64 4, ptr %4) #6
  br label %32

32:                                               ; preds = %31
  br label %33

33:                                               ; preds = %32
  %34 = load ptr, ptr %3, align 8
  %35 = getelementptr inbounds nuw %struct.xlist, ptr %34, i32 0, i32 8
  store ptr null, ptr %35, align 8
  %36 = load ptr, ptr %3, align 8
  %37 = getelementptr inbounds nuw %struct.xlist, ptr %36, i32 0, i32 9
  %38 = getelementptr inbounds [0 x %struct.listNode], ptr %37, i64 0, i64 0
  %39 = load ptr, ptr %3, align 8
  %40 = getelementptr inbounds nuw %struct.xlist, ptr %39, i32 0, i32 7
  store ptr %38, ptr %40, align 8
  call void @llvm.lifetime.start.p0(i64 4, ptr %5) #6
  store i32 0, ptr %5, align 4
  br label %41

41:                                               ; preds = %58, %33
  %42 = load i32, ptr %5, align 4
  %43 = icmp slt i32 %42, 246
  br i1 %43, label %45, label %44

44:                                               ; preds = %41
  call void @llvm.lifetime.end.p0(i64 4, ptr %5) #6
  br label %61

45:                                               ; preds = %41
  %46 = load ptr, ptr %3, align 8
  %47 = getelementptr inbounds nuw %struct.xlist, ptr %46, i32 0, i32 9
  %48 = load i32, ptr %5, align 4
  %49 = add nsw i32 %48, 1
  %50 = sext i32 %49 to i64
  %51 = getelementptr inbounds [0 x %struct.listNode], ptr %47, i64 0, i64 %50
  %52 = load ptr, ptr %3, align 8
  %53 = getelementptr inbounds nuw %struct.xlist, ptr %52, i32 0, i32 9
  %54 = load i32, ptr %5, align 4
  %55 = sext i32 %54 to i64
  %56 = getelementptr inbounds [0 x %struct.listNode], ptr %53, i64 0, i64 %55
  %57 = getelementptr inbounds nuw %struct.listNode, ptr %56, i32 0, i32 1
  store ptr %51, ptr %57, align 8
  br label %58

58:                                               ; preds = %45
  %59 = load i32, ptr %5, align 4
  %60 = add nsw i32 %59, 1
  store i32 %60, ptr %5, align 4
  br label %41, !llvm.loop !8

61:                                               ; preds = %44
  %62 = load ptr, ptr %3, align 8
  call void @llvm.lifetime.end.p0(i64 8, ptr %3) #6
  ret ptr %62
}

; Function Attrs: nounwind uwtable
define dso_local ptr @list_shallow_copy(ptr noundef %0) #0 {
  %2 = alloca ptr, align 8
  %3 = alloca ptr, align 8
  store ptr %0, ptr %2, align 8
  call void @llvm.lifetime.start.p0(i64 8, ptr %3) #6
  %4 = call ptr @list_create(ptr noundef null)
  store ptr %4, ptr %3, align 8
  %5 = load ptr, ptr %3, align 8
  %6 = load ptr, ptr %2, align 8
  %7 = call i32 @list_append_list(ptr noundef %5, ptr noundef %6)
  %8 = load ptr, ptr %3, align 8
  call void @llvm.lifetime.end.p0(i64 8, ptr %3) #6
  ret ptr %8
}