; Function Attrs: nounwind uwtable
define dso_local noundef ptr @list_shallow_copy(ptr noundef %0) #0 {
  %2 = tail call ptr @slurm_xcalloc(i64 noundef 1, i64 noundef 4064, i1 noundef zeroext true, i1 noundef zeroext false, ptr noundef nonnull @.str, i32 noundef 158, ptr noundef nonnull @__func__.list_create) #9
  store i32 -559038737, ptr %2, align 8
  %3 = getelementptr inbounds nuw i8, ptr %2, i64 8
  store ptr null, ptr %3, align 8
  %4 = getelementptr inbounds nuw i8, ptr %2, i64 16
  store ptr %3, ptr %4, align 8
  %5 = getelementptr inbounds nuw i8, ptr %2, i64 24
  %6 = getelementptr inbounds nuw i8, ptr %2, i64 4
  store i32 0, ptr %6, align 4
  %7 = getelementptr inbounds nuw i8, ptr %2, i64 40
  tail call void @llvm.memset.p0.i64(ptr noundef nonnull align 8 dereferenceable(16) %5, i8 0, i64 16, i1 false)
  %8 = tail call i32 @pthread_rwlock_init(ptr noundef nonnull %7, ptr noundef null) #9
  %.not.i = icmp eq i32 %8, 0
  br i1 %.not.i, label %11, label %9

9:                                                ; preds = %1
  %10 = tail call ptr @__errno_location() #10
  store i32 %8, ptr %10, align 4
  tail call void (ptr, ...) @fatal_abort(ptr noundef nonnull @.str.1, ptr noundef nonnull @__func__.list_create) #11
  unreachable

11:                                               ; preds = %1
  %12 = getelementptr inbounds nuw i8, ptr %2, i64 104
  store ptr null, ptr %12, align 8
  %13 = getelementptr inbounds nuw i8, ptr %2, i64 112
  %14 = getelementptr inbounds nuw i8, ptr %2, i64 96
  store ptr %13, ptr %14, align 8
  br label %15

15:                                               ; preds = %15, %11
  %indvars.iv.i = phi i64 [ 0, %11 ], [ %indvars.iv.next.i, %15 ]
  %indvars.iv.next.i = add nuw nsw i64 %indvars.iv.i, 1
  %16 = getelementptr inbounds nuw [0 x %struct.listNode], ptr %13, i64 0, i64 %indvars.iv.next.i
  %17 = shl nuw nsw i64 %indvars.iv.i, 4
  %18 = or disjoint i64 %17, 8
  %19 = getelementptr inbounds nuw i8, ptr %13, i64 %18
  store ptr %16, ptr %19, align 8
  %exitcond.not.i = icmp eq i64 %indvars.iv.next.i, 246
  br i1 %exitcond.not.i, label %list_create.exit, label %15, !llvm.loop !8

list_create.exit:                                 ; preds = %15
  %20 = tail call i32 @list_append_list(ptr noundef nonnull %2, ptr noundef %0)
  ret ptr %2
}